(dp0
S'batch_matmul_time'
p1
cnumpy.core.multiarray
scalar
p2
(cnumpy
dtype
p3
(S'f8'
p4
I0
I1
tp5
Rp6
(I3
S'<'
p7
NNNI-1
I-1
I0
tp8
bS'333\xb3\x8a\x9a\xe8?'
p9
tp10
Rp11
sS'project_time'
p12
g2
(g6
S'\x89\x88\x88\x88@\xb8\x82?'
p13
tp14
Rp15
sS'batch_matvec_time'
p16
g2
(g6
S'DDDD\x7f\xd6\xb4?'
p17
tp18
Rp19
sS'norm_time'
p20
g2
(g6
S'wwww\xf7\xca\x80?'
p21
tp22
Rp23
sS'matmul_time'
p24
g2
(g6
S'\x89\x88\x88\x88\xd0\xdb\x80?'
p25
tp26
Rp27
sS'batch_project_time'
p28
g2
(g6
S'\xef\xee\xee\xee.\x0f\x8a?'
p29
tp30
Rp31
sS'matvec_time'
p32
g2
(g6
S'UUUU\x95\xe6c?'
p33
tp34
Rp35
sS'tt_svd_time'
p36
g2
(g6
S'\xab\xaa\xaa\xaaF\x87\x91?'
p37
tp38
Rp39
sS'batch_norm_time'
p40
g2
(g6
S'\xde\xdd\xdd\xdd\xb7\xf7\xa3?'
p41
tp42
Rp43
sS'gram_time'
p44
g2
(g6
S'ffffK-\xb5?'
p45
tp46
Rp47
s.