(dp0
S'batch_matmul_time'
p1
cnumpy.core.multiarray
scalar
p2
(cnumpy
dtype
p3
(S'f8'
p4
I0
I1
tp5
Rp6
(I3
S'<'
p7
NNNI-1
I-1
I0
tp8
bS'\xde\xdd\xdd\x1bS\xf04@'
p9
tp10
Rp11
sS'project_time'
p12
g2
(g6
S'\xde\xdd\xdd\xdd\x1dId?'
p13
tp14
Rp15
sS'batch_matvec_time'
p16
g2
(g6
S'"""2 {\xfa?'
p17
tp18
Rp19
sS'norm_time'
p20
g2
(g6
S'\xde\xdd\xdd\xdd}Bu?'
p21
tp22
Rp23
sS'matmul_time'
p24
g2
(g6
S'wwwwb\xdd\xc2?'
p25
tp26
Rp27
sS'batch_project_time'
p28
g2
(g6
S'\x89\x88\x88\x88\xaa2\xbb?'
p29
tp30
Rp31
sS'matvec_time'
p32
g2
(g6
S'\x9a\x99\x99\x99\xdd]\x94?'
p33
tp34
Rp35
sS'tt_svd_time'
p36
g2
(g6
S'\xcd\xcc\xcc\xcc\xec\xdb\x8e?'
p37
tp38
Rp39
sS'batch_norm_time'
p40
g2
(g6
S'\xbc\xbb\xbb\xbbq\x86\xa6?'
p41
tp42
Rp43
sS'gram_time'
p44
g2
(g6
S'\x11\x11\x11\xffO\xcb @'
p45
tp46
Rp47
s.