(dp0
S'batch_matmul_time'
p1
F0.00037342071533203125
sS'project_time'
p2
F0.0002398080825805664
sS'batch_matvec_time'
p3
F0.0003491091728210449
sS'round_time'
p4
F0.00016474294662475585
sS'norm_time'
p5
F0.0008932108879089356
sS'matmul_time'
p6
F0.00013312101364135743
sS'batch_project_time'
p7
F0.014079785346984864
sS'batch_round_time'
p8
F0.0005947995185852051
sS'matvec_time'
p9
F0.00012082600593566895
sS'batch_gram_time'
p10
F0.006867189407348633
sS'project_rank100_time'
p11
F0.001657888889312744
sS'batch_project_rank100_time'
p12
F0.001759040355682373
sS'tt_svd_time'
p13
F0.00014748501777648925
sS'batch_norm_time'
p14
F0.004972738981246948
sS'flatinner_time'
p15
F0.0007025179862976074
s.