(dp0
S'batch_matmul_time'
p1
F0.00035024166107177734
sS'project_time'
p2
F0.00023940801620483398
sS'batch_matvec_time'
p3
F0.00034156084060668943
sS'round_time'
p4
F0.00015906500816345216
sS'norm_time'
p5
F0.001901895046234131
sS'matmul_time'
p6
F0.00012479305267333983
sS'batch_project_time'
p7
F0.013538193702697755
sS'batch_round_time'
p8
F0.0005605721473693848
sS'matvec_time'
p9
F0.00012870097160339356
sS'batch_gram_time'
p10
F0.28847967863082885
sS'project_rank100_time'
p11
F0.0015640497207641602
sS'batch_project_rank100_time'
p12
F0.0017176294326782227
sS'tt_svd_time'
p13
F0.00017525100708007813
sS'batch_norm_time'
p14
F0.04223270702362061
sS'flatinner_time'
p15
F0.0008057281970977783
s.